; Function Attrs: mustprogress uwtable
define hidden noundef nonnull align 8 dereferenceable(16) ptr @_ZN3smt11theory_char9get_ebitsEi(ptr noundef nonnull align 8 dereferenceable(384) %this, i32 noundef %v) local_unnamed_addr #3 align 2 {
entry:
  tail call void @_ZN3smt11theory_char9init_bitsEi(ptr noundef nonnull align 8 dereferenceable(384) %this, i32 noundef %v)
  %m_ebits = getelementptr inbounds i8, ptr %this, i64 200
  %0 = load ptr, ptr %m_ebits, align 8
  %idxprom.i = zext i32 %v to i64
  %arrayidx.i = getelementptr inbounds %class.ref_vector, ptr %0, i64 %idxprom.i
  ret ptr %arrayidx.i
}